; Function Attrs: mustprogress nounwind uwtable
define dso_local void @_ZN4node7UDPWrap5GetFDERKN2v820FunctionCallbackInfoINS1_5ValueEEE(ptr nocapture noundef nonnull readonly align 8 dereferenceable(20) %args) #3 align 2 {
entry:
  %fd = alloca i32, align 4
  store i32 -9, ptr %fd, align 4
  %values_.i = getelementptr inbounds i8, ptr %args, i64 8
  %0 = load ptr, ptr %values_.i, align 8
  %add.ptr.i = getelementptr inbounds i8, ptr %0, i64 -8
  %1 = load i64, ptr %add.ptr.i, align 8
  %sub.i31.i.i.i = add i64 %1, -1
  %2 = inttoptr i64 %sub.i31.i.i.i to ptr
  %3 = load i64, ptr %2, align 8
  %sub.i25.i.i.i = add i64 %3, 11
  %4 = inttoptr i64 %sub.i25.i.i.i to ptr
  %5 = load i16, ptr %4, align 2
  %conv.i.i.i.i = zext i16 %5 to i32
  %cmp.i.i.i.i = icmp eq i16 %5, 1040
  %sub.i.i.i.i = add nsw i32 %conv.i.i.i.i, -1057
  %cmp1.i.i.i.i = icmp ult i32 %sub.i.i.i.i, 1002
  %6 = select i1 %cmp.i.i.i.i, i1 true, i1 %cmp1.i.i.i.i
  br i1 %6, label %if.then.i.i.i.i, label %if.end.i.i.i.i

if.then.i.i.i.i:                                  ; preds = %entry
  %sub.i37.i.i.i = add i64 %1, 31
  %7 = inttoptr i64 %sub.i37.i.i.i to ptr
  %8 = load i64, ptr %7, align 8
  %9 = inttoptr i64 %8 to ptr
  br label %_ZN4node6UnwrapINS_7UDPWrapEEEPT_N2v85LocalINS4_5ValueEEE.exit

if.end.i.i.i.i:                                   ; preds = %entry
  %call7.i.i.i.i = tail call noundef ptr @_ZN2v86Object38SlowGetAlignedPointerFromInternalFieldEi(ptr noundef nonnull align 1 dereferenceable(1) %add.ptr.i, i32 noundef 1) #19
  br label %_ZN4node6UnwrapINS_7UDPWrapEEEPT_N2v85LocalINS4_5ValueEEE.exit

_ZN4node6UnwrapINS_7UDPWrapEEEPT_N2v85LocalINS4_5ValueEEE.exit: ; preds = %if.then.i.i.i.i, %if.end.i.i.i.i
  %retval.i.0.i.i.i = phi ptr [ %9, %if.then.i.i.i.i ], [ %call7.i.i.i.i, %if.end.i.i.i.i ]
  %cmp.not = icmp eq ptr %retval.i.0.i.i.i, null
  br i1 %cmp.not, label %if.then.i, label %if.then

if.then:                                          ; preds = %_ZN4node6UnwrapINS_7UDPWrapEEEPT_N2v85LocalINS4_5ValueEEE.exit
  %handle_ = getelementptr inbounds i8, ptr %retval.i.0.i.i.i, i64 120
  %call11 = call i32 @uv_fileno(ptr noundef nonnull %handle_, ptr noundef nonnull %fd) #19
  %.pre = load i32, ptr %fd, align 4
  %10 = sext i32 %.pre to i64
  %11 = shl nsw i64 %10, 32
  br label %if.then.i

if.then.i:                                        ; preds = %_ZN4node6UnwrapINS_7UDPWrapEEEPT_N2v85LocalINS4_5ValueEEE.exit, %if.then
  %conv.i = phi i64 [ -38654705664, %_ZN4node6UnwrapINS_7UDPWrapEEEPT_N2v85LocalINS4_5ValueEEE.exit ], [ %11, %if.then ]
  %12 = load ptr, ptr %args, align 8
  %arrayidx.i = getelementptr inbounds i8, ptr %12, i64 24
  store i64 %conv.i, ptr %arrayidx.i, align 8
  ret void
}